target datalayout = "e-m:e-p270:32:32-p271:32:32-p272:64:64-i64:64-i128:128-f80:128-n8:16:32:64-S128"
target triple = "x86_64-unknown-linux-gnu"

%"class.std::set.0" = type { %"class.std::_Rb_tree.1" }
%"class.std::_Rb_tree.1" = type { %"struct.std::_Rb_tree<QuantLib::Observer *, QuantLib::Observer *, std::_Identity<QuantLib::Observer *>, std::less<QuantLib::Observer *>>::_Rb_tree_impl" }
%"struct.std::_Rb_tree<QuantLib::Observer *, QuantLib::Observer *, std::_Identity<QuantLib::Observer *>, std::less<QuantLib::Observer *>>::_Rb_tree_impl" = type { [8 x i8], %"struct.std::_Rb_tree_header" }
%"struct.std::_Rb_tree_header" = type { %"struct.std::_Rb_tree_node_base", i64 }
%"struct.std::_Rb_tree_node_base" = type { i32, ptr, ptr, ptr }
%"class.boost::detail::shared_count" = type { ptr }
%"class.QuantLib::Observable" = type { ptr, %"class.std::set.0" }
%"class.QuantLib::Handle" = type { %"class.boost::shared_ptr.35" }
%"class.boost::shared_ptr.35" = type { ptr, %"class.boost::detail::shared_count" }
%"class.QuantLib::TermStructureConsistentModel" = type { ptr, %"class.QuantLib::Handle", %"class.QuantLib::Observable" }
%"class.boost::shared_ptr.44" = type { ptr, %"class.boost::detail::shared_count" }

@.str.7 = private unnamed_addr constant [8 x i8] c"px != 0\00", align 1
@.str.8 = private unnamed_addr constant [102 x i8] c"generated/home/dtcxzyw/WorkSpace/SDK/vcpkg/installed/x64-linux/include/boost/smart_ptr/shared_ptr.hpp\00", align 1
@__PRETTY_FUNCTION__._ZNK5boost10shared_ptrIN8QuantLib18YieldTermStructureEEptEv = private unnamed_addr constant [153 x i8] c"typename boost::detail::sp_member_access<T>::type boost::shared_ptr<QuantLib::YieldTermStructure>::operator->() const [T = QuantLib::YieldTermStructure]\00", align 1

; Function Attrs: mustprogress uwtable
define linkonce_odr noundef ptr @_ZNK5boost10shared_ptrIN8QuantLib18YieldTermStructureEEptEv(ptr noundef nonnull align 8 dereferenceable(16) %this) #2 comdat align 2 {
entry:
  %this.addr = alloca ptr, align 8
  store ptr %this, ptr %this.addr, align 8, !tbaa !3
  %this1 = load ptr, ptr %this.addr, align 8
  %px = getelementptr inbounds nuw %"class.boost::shared_ptr.44", ptr %this1, i32 0, i32 0
  %0 = load ptr, ptr %px, align 8, !tbaa !75
  %cmp = icmp ne ptr %0, null
  %lnot = xor i1 %cmp, true
  %lnot2 = xor i1 %lnot, true
  %conv = zext i1 %lnot2 to i64
  %expval = call i64 @llvm.expect.i64(i64 %conv, i64 1)
  %tobool = icmp ne i64 %expval, 0
  br i1 %tobool, label %cond.true, label %cond.false

cond.true:                                        ; preds = %entry
  br label %cond.end

cond.false:                                       ; preds = %entry
  call void @_ZN5boost16assertion_failedEPKcS1_S1_l(ptr noundef @.str.7, ptr noundef @__PRETTY_FUNCTION__._ZNK5boost10shared_ptrIN8QuantLib18YieldTermStructureEEptEv, ptr noundef @.str.8, i64 noundef 784)
  br label %cond.end

cond.end:                                         ; preds = %cond.false, %cond.true
  %px3 = getelementptr inbounds nuw %"class.boost::shared_ptr.44", ptr %this1, i32 0, i32 0
  %1 = load ptr, ptr %px3, align 8, !tbaa !75
  ret ptr %1
}

; Function Attrs: mustprogress nounwind uwtable
define linkonce_odr noundef nonnull align 8 dereferenceable(16) ptr @_ZNK8QuantLib28TermStructureConsistentModel13termStructureEv(ptr noundef nonnull align 8 dereferenceable(24) %this) #1 comdat align 2 {
entry:
  %this.addr = alloca ptr, align 8
  store ptr %this, ptr %this.addr, align 8, !tbaa !3
  %this1 = load ptr, ptr %this.addr, align 8
  %termStructure_ = getelementptr inbounds nuw %"class.QuantLib::TermStructureConsistentModel", ptr %this1, i32 0, i32 1
  ret ptr %termStructure_
}

; Function Attrs: mustprogress uwtable
define noundef double @_ZNK8QuantLib20GeneralizedHullWhite18discountBondOptionENS_6Option4TypeEddd(ptr noundef nonnull align 8 dereferenceable(400) %this, i32 noundef %type, double noundef %strike, double noundef %maturity, double noundef %bondMaturity) unnamed_addr #2 align 2 {
entry:
  %this.addr = alloca ptr, align 8
  %type.addr = alloca i32, align 4
  %strike.addr = alloca double, align 8
  %maturity.addr = alloca double, align 8
  %bondMaturity.addr = alloca double, align 8
  %BtT = alloca double, align 8
  %Vr = alloca double, align 8
  %Vp = alloca double, align 8
  %vol = alloca double, align 8
  %f = alloca double, align 8
  %k = alloca double, align 8
  store ptr %this, ptr %this.addr, align 8, !tbaa !3
  store i32 %type, ptr %type.addr, align 4, !tbaa !26
  store double %strike, ptr %strike.addr, align 8, !tbaa !16
  store double %maturity, ptr %maturity.addr, align 8, !tbaa !16
  store double %bondMaturity, ptr %bondMaturity.addr, align 8, !tbaa !16
  %this1 = load ptr, ptr %this.addr, align 8
  call void @llvm.lifetime.start.p0(i64 8, ptr %BtT) #17
  %0 = load double, ptr %maturity.addr, align 8, !tbaa !16
  %1 = load double, ptr %bondMaturity.addr, align 8, !tbaa !16
  %vtable = load ptr, ptr %this1, align 8, !tbaa !12
  %vfn = getelementptr inbounds ptr, ptr %vtable, i64 11
  %2 = load ptr, ptr %vfn, align 8
  %call = call noundef double %2(ptr noundef nonnull align 8 dereferenceable(400) %this1, double noundef %0, double noundef %1)
  store double %call, ptr %BtT, align 8, !tbaa !16
  call void @llvm.lifetime.start.p0(i64 8, ptr %Vr) #17
  %3 = load double, ptr %maturity.addr, align 8, !tbaa !16
  %call2 = call noundef double @_ZNK8QuantLib20GeneralizedHullWhite1VEdd(ptr noundef nonnull align 8 dereferenceable(400) %this1, double noundef 0.000000e+00, double noundef %3)
  store double %call2, ptr %Vr, align 8, !tbaa !16
  call void @llvm.lifetime.start.p0(i64 8, ptr %Vp) #17
  %4 = load double, ptr %Vr, align 8, !tbaa !16
  %5 = load double, ptr %BtT, align 8, !tbaa !16
  %mul = fmul double %4, %5
  %6 = load double, ptr %BtT, align 8, !tbaa !16
  %mul3 = fmul double %mul, %6
  store double %mul3, ptr %Vp, align 8, !tbaa !16
  call void @llvm.lifetime.start.p0(i64 8, ptr %vol) #17
  %7 = load double, ptr %Vp, align 8, !tbaa !16
  %call4 = call double @sqrt(double noundef %7) #17, !tbaa !81
  store double %call4, ptr %vol, align 8, !tbaa !16
  call void @llvm.lifetime.start.p0(i64 8, ptr %f) #17
  %add.ptr = getelementptr inbounds i8, ptr %this1, i64 88
  %call5 = call noundef nonnull align 8 dereferenceable(16) ptr @_ZNK8QuantLib28TermStructureConsistentModel13termStructureEv(ptr noundef nonnull align 8 dereferenceable(24) %add.ptr)
  %call6 = call noundef nonnull align 8 dereferenceable(16) ptr @_ZNK8QuantLib6HandleINS_18YieldTermStructureEEptEv(ptr noundef nonnull align 8 dereferenceable(16) %call5)
  %call7 = call noundef ptr @_ZNK5boost10shared_ptrIN8QuantLib18YieldTermStructureEEptEv(ptr noundef nonnull align 8 dereferenceable(16) %call6)
  %8 = load double, ptr %bondMaturity.addr, align 8, !tbaa !16
  %call8 = call noundef double @_ZNK8QuantLib18YieldTermStructure8discountEdb(ptr noundef nonnull align 8 dereferenceable(152) %call7, double noundef %8, i1 noundef zeroext false)
  store double %call8, ptr %f, align 8, !tbaa !16
  call void @llvm.lifetime.start.p0(i64 8, ptr %k) #17
  %add.ptr9 = getelementptr inbounds i8, ptr %this1, i64 88
  %call10 = call noundef nonnull align 8 dereferenceable(16) ptr @_ZNK8QuantLib28TermStructureConsistentModel13termStructureEv(ptr noundef nonnull align 8 dereferenceable(24) %add.ptr9)
  %call11 = call noundef nonnull align 8 dereferenceable(16) ptr @_ZNK8QuantLib6HandleINS_18YieldTermStructureEEptEv(ptr noundef nonnull align 8 dereferenceable(16) %call10)
  %call12 = call noundef ptr @_ZNK5boost10shared_ptrIN8QuantLib18YieldTermStructureEEptEv(ptr noundef nonnull align 8 dereferenceable(16) %call11)
  %9 = load double, ptr %maturity.addr, align 8, !tbaa !16
  %call13 = call noundef double @_ZNK8QuantLib18YieldTermStructure8discountEdb(ptr noundef nonnull align 8 dereferenceable(152) %call12, double noundef %9, i1 noundef zeroext false)
  %10 = load double, ptr %strike.addr, align 8, !tbaa !16
  %mul14 = fmul double %call13, %10
  store double %mul14, ptr %k, align 8, !tbaa !16
  %11 = load i32, ptr %type.addr, align 4, !tbaa !26
  %12 = load double, ptr %k, align 8, !tbaa !16
  %13 = load double, ptr %f, align 8, !tbaa !16
  %14 = load double, ptr %vol, align 8, !tbaa !16
  %call15 = call noundef double @_ZN8QuantLib12blackFormulaENS_6Option4TypeEddddd(i32 noundef %11, double noundef %12, double noundef %13, double noundef %14, double noundef 1.000000e+00, double noundef 0.000000e+00)
  call void @llvm.lifetime.end.p0(i64 8, ptr %k) #17
  call void @llvm.lifetime.end.p0(i64 8, ptr %f) #17
  call void @llvm.lifetime.end.p0(i64 8, ptr %vol) #17
  call void @llvm.lifetime.end.p0(i64 8, ptr %Vp) #17
  call void @llvm.lifetime.end.p0(i64 8, ptr %Vr) #17
  call void @llvm.lifetime.end.p0(i64 8, ptr %BtT) #17
  ret double %call15
}