; Function Attrs: mustprogress uwtable
define noundef double @_ZNK8QuantLib20GeneralizedHullWhite18discountBondOptionENS_6Option4TypeEddd(ptr noundef nonnull align 8 dereferenceable(400) %this, i32 noundef %type, double noundef %strike, double noundef %maturity, double noundef %bondMaturity) unnamed_addr #6 align 2 {
entry:
  %vtable = load ptr, ptr %this, align 8, !tbaa !35
  %vfn = getelementptr inbounds i8, ptr %vtable, i64 88
  %0 = load ptr, ptr %vfn, align 8
  %call = tail call noundef double %0(ptr noundef nonnull align 8 dereferenceable(400) %this, double noundef %maturity, double noundef %bondMaturity)
  %call2 = tail call noundef double @_ZNK8QuantLib20GeneralizedHullWhite1VEdd(ptr noundef nonnull align 8 dereferenceable(400) %this, double noundef 0.000000e+00, double noundef %maturity)
  %mul = fmul double %call, %call2
  %mul3 = fmul double %call, %mul
  %call4 = tail call double @sqrt(double noundef %mul3) #28, !tbaa !137
  %termStructure_.i = getelementptr inbounds i8, ptr %this, i64 96
  %call6 = tail call noundef nonnull align 8 dereferenceable(16) ptr @_ZNK8QuantLib6HandleINS_18YieldTermStructureEEptEv(ptr noundef nonnull align 8 dereferenceable(16) %termStructure_.i)
  %1 = load ptr, ptr %call6, align 8, !tbaa !62
  %cmp.not.i = icmp eq ptr %1, null
  br i1 %cmp.not.i, label %cond.false.i, label %_ZNK5boost10shared_ptrIN8QuantLib18YieldTermStructureEEptEv.exit, !prof !44

cond.false.i:                                     ; preds = %entry
  tail call void @_ZN5boost16assertion_failedEPKcS1_S1_l(ptr noundef nonnull @.str.7, ptr noundef nonnull @__PRETTY_FUNCTION__._ZNK5boost10shared_ptrIN8QuantLib18YieldTermStructureEEptEv, ptr noundef nonnull @.str.8, i64 noundef 784)
  %.pre.i = load ptr, ptr %call6, align 8, !tbaa !62
  br label %_ZNK5boost10shared_ptrIN8QuantLib18YieldTermStructureEEptEv.exit

_ZNK5boost10shared_ptrIN8QuantLib18YieldTermStructureEEptEv.exit: ; preds = %entry, %cond.false.i
  %2 = phi ptr [ %1, %entry ], [ %.pre.i, %cond.false.i ]
  %call8 = tail call noundef double @_ZNK8QuantLib18YieldTermStructure8discountEdb(ptr noundef nonnull align 8 dereferenceable(152) %2, double noundef %bondMaturity, i1 noundef zeroext false)
  %call11 = tail call noundef nonnull align 8 dereferenceable(16) ptr @_ZNK8QuantLib6HandleINS_18YieldTermStructureEEptEv(ptr noundef nonnull align 8 dereferenceable(16) %termStructure_.i)
  %3 = load ptr, ptr %call11, align 8, !tbaa !62
  %cmp.not.i6 = icmp eq ptr %3, null
  br i1 %cmp.not.i6, label %cond.false.i7, label %_ZNK5boost10shared_ptrIN8QuantLib18YieldTermStructureEEptEv.exit9, !prof !44

cond.false.i7:                                    ; preds = %_ZNK5boost10shared_ptrIN8QuantLib18YieldTermStructureEEptEv.exit
  tail call void @_ZN5boost16assertion_failedEPKcS1_S1_l(ptr noundef nonnull @.str.7, ptr noundef nonnull @__PRETTY_FUNCTION__._ZNK5boost10shared_ptrIN8QuantLib18YieldTermStructureEEptEv, ptr noundef nonnull @.str.8, i64 noundef 784)
  %.pre.i8 = load ptr, ptr %call11, align 8, !tbaa !62
  br label %_ZNK5boost10shared_ptrIN8QuantLib18YieldTermStructureEEptEv.exit9

_ZNK5boost10shared_ptrIN8QuantLib18YieldTermStructureEEptEv.exit9: ; preds = %_ZNK5boost10shared_ptrIN8QuantLib18YieldTermStructureEEptEv.exit, %cond.false.i7
  %4 = phi ptr [ %3, %_ZNK5boost10shared_ptrIN8QuantLib18YieldTermStructureEEptEv.exit ], [ %.pre.i8, %cond.false.i7 ]
  %call13 = tail call noundef double @_ZNK8QuantLib18YieldTermStructure8discountEdb(ptr noundef nonnull align 8 dereferenceable(152) %4, double noundef %maturity, i1 noundef zeroext false)
  %mul14 = fmul double %strike, %call13
  %call15 = tail call noundef double @_ZN8QuantLib12blackFormulaENS_6Option4TypeEddddd(i32 noundef %type, double noundef %mul14, double noundef %call8, double noundef %call4, double noundef 1.000000e+00, double noundef 0.000000e+00)
  ret double %call15
}